(dp0
S'keywords'
p1
(dp2
Vand
p3
(lp4
S'/Users/kalmi/Dropbox/Notes/Worklog.txt'
p5
asVwiki
p6
(lp7
g5
asVgoogle
p8
(lp9
g5
asVinto
p10
(lp11
S'/Users/kalmi/Dropbox/Notes/todo'
p12
asVtesting
p13
(lp14
g5
asVterheles
p15
(lp16
g12
asVchomp
p17
(lp18
g12
asVan
p19
(lp20
g5
asVstystem
p21
(lp22
g5
asVapi
p23
(lp24
g5
asVblam
p25
(lp26
g12
asVinbox
p27
(lp28
g12
asVin
p29
(lp30
g5
asVwork
p31
(lp32
g5
asVtodo
p33
(lp34
g12
asVid
p35
(lp36
g12
asVzap
p37
(lp38
g12
asVbased
p39
(lp40
g5
asVimg
p41
(lp42
g5
asVscala
p43
(lp44
g5
asVs3
p45
(lp46
g5
asVstorage
p47
(lp48
g5
asVfeature
p49
(lp50
g12
asVcheck
p51
(lp52
g5
asVlibraries
p53
(lp54
g5
asVinstance
p55
(lp56
g5
asVunit
p57
(lp58
g5
asVtest
p59
(lp60
g12
ag5
asVcsere
p61
(lp62
g12
asVzeromq
p63
(lp64
g12
asVdoflush
p65
(lp66
g5
asVimage
p67
(lp68
g5
asVworklog
p69
(lp70
g5
asVcotendo
p71
(lp72
g12
ag5
asVread
p73
(lp74
g5
asVupdate
p75
(lp76
g5
asVhours
p77
(lp78
g5
asVgawkerassetes
p79
(lp80
g5
asVcloud
p81
(lp82
g5
asVjenkins
p83
(lp84
g5
asVdate
p85
(lp86
g5
asVworked
p87
(lp88
g5
asVconfiguration
p89
(lp90
g5
asVmethod
p91
(lp92
g5
asVon
p93
(lp94
g5
asVconfig
p95
(lp96
g5
asVsetup
p97
(lp98
g5
asVdocumentation
p99
(lp100
g5
asVbucket
p101
(lp102
g5
asVrabbitmq
p103
(lp104
g12
asVsoap
p105
(lp106
g5
asVmerge
p107
(lp108
g12
asVclient
p109
(lp110
g5
asVimplementation
p111
(lp112
g5
asVdec
p113
(lp114
g5
asVcom
p115
(lp116
g5
asVor
p117
(lp118
g12
asVec2
p119
(lp120
g5
assS'files'
p121
(dp122
g12
F1324382976.0
sg5
F1323633052.0
ssS'version'
p123
I1
s.