(dp0
S'keywords'
p1
(dp2
Vand
p3
(lp4
S'/Users/kalmi/Dropbox/Notes/Worklog.txt'
p5
asVwiki
p6
(lp7
g5
asVgoogle
p8
(lp9
g5
asVfile
p10
(lp11
S'/Users/kalmi/homeskel/vim/misc/notes/user/README'
p12
asVfeel
p13
(lp14
g12
asVimage
p15
(lp16
g5
asVtesting
p17
(lp18
g5
asVit
p19
(lp20
g12
asVan
p21
(lp22
g5
asVsee
p23
(lp24
g12
asVstored
p25
(lp26
g12
asVec2
p27
(lp28
g5
asVwant
p29
(lp30
g12
asVin
p31
(lp32
g12
ag5
asVwork
p33
(lp34
g5
asVyour
p35
(lp36
g12
asVunit
p37
(lp38
g5
asVif
p39
(lp40
g12
asVagain
p41
(lp42
g12
asVbased
p43
(lp44
g5
asVfor
p45
(lp46
S'/Users/kalmi/Documents/Notes/Worklog for November'
p47
asVscala
p48
(lp49
g5
asVs3
p50
(lp51
g5
asVstorage
p52
(lp53
g5
asVcheck
p54
(lp55
g5
asVlibraries
p56
(lp57
g5
asVto
p58
(lp59
g12
asVclient
p60
(lp61
g5
asVcloud
p62
(lp63
g5
asVreadme
p64
(lp65
g12
asVjenkins
p66
(lp67
g5
asVyou
p68
(lp69
g12
asVgawkerassetes
p70
(lp71
g5
asVdoflush
p72
(lp73
g5
asVsoap
p74
(lp75
g5
asVbe
p76
(lp77
g12
asVworklog
p78
(lp79
g47
ag5
asVcotendo
p80
(lp81
g5
asVread
p82
(lp83
g5
asVupdate
p84
(lp85
g5
asVfree
p86
(lp87
g12
asVhours
p88
(lp89
g5
asVtest
p90
(lp91
g5
asVinstance
p92
(lp93
g5
asVimplementation
p94
(lp95
g5
asVdate
p96
(lp97
g5
asVnovember
p98
(lp99
g47
asVconfiguration
p100
(lp101
g5
asVby
p102
(lp103
g12
asV11
p104
(lp105
g47
asVon
p106
(lp107
g5
asVdon
p108
(lp109
g12
asVimg
p110
(lp111
g5
asVdefault
p112
(lp113
g12
asVconfig
p114
(lp115
g5
asVnotes
p116
(lp117
g12
asVdocumentation
p118
(lp119
g5
asVbucket
p120
(lp121
g5
asVstystem
p122
(lp123
g5
asVworked
p124
(lp125
g5
asVmethod
p126
(lp127
g5
asVwill
p128
(lp129
g12
asVthis
p130
(lp131
g12
asVapi
p132
(lp133
g5
asVdirectory
p134
(lp135
g12
asVdec
p136
(lp137
g5
asVcom
p138
(lp139
g5
asVsetup
p140
(lp141
g5
asVdelete
p142
(lp143
g12
assS'files'
p144
(dp145
g5
F1323372725.0
ssS'version'
p146
I1
s.